; Function Attrs: mustprogress uwtable
define hidden void @_ZN13macro_manager17restore_forbiddenEj(ptr noundef nonnull align 8 dereferenceable(568) %0, i32 noundef %1) local_unnamed_addr #3 align 2 {
  %3 = alloca ptr, align 8
  %4 = getelementptr inbounds nuw i8, ptr %0, i64 488
  %5 = getelementptr inbounds nuw i8, ptr %0, i64 496
  %6 = load ptr, ptr %5, align 8, !tbaa !27
  %7 = icmp eq ptr %6, null
  br i1 %7, label %_ZN15ref_vector_coreI9func_decl19ref_manager_wrapperIS0_11ast_managerEE6shrinkEj.exit, label %_ZNK15ref_vector_coreI9func_decl19ref_manager_wrapperIS0_11ast_managerEE4sizeEv.exit

_ZNK15ref_vector_coreI9func_decl19ref_manager_wrapperIS0_11ast_managerEE4sizeEv.exit: ; preds = %2
  %8 = getelementptr inbounds i8, ptr %6, i64 -4
  %9 = load i32, ptr %8, align 4, !tbaa !83
  %10 = icmp ult i32 %1, %9
  br i1 %10, label %.lr.ph, label %_ZN6vectorIP9func_declLb0EjE3endEv.exit.i

.lr.ph:                                           ; preds = %_ZNK15ref_vector_coreI9func_decl19ref_manager_wrapperIS0_11ast_managerEE4sizeEv.exit
  %11 = getelementptr inbounds nuw i8, ptr %0, i64 464
  %12 = zext i32 %1 to i64
  br label %34

._crit_edge:                                      ; preds = %34
  %.pre = load ptr, ptr %5, align 8, !tbaa !27
  %13 = icmp eq ptr %.pre, null
  br i1 %13, label %_ZN15ref_vector_coreI9func_decl19ref_manager_wrapperIS0_11ast_managerEE6shrinkEj.exit, label %_ZN6vectorIP9func_declLb0EjE3endEv.exit.i

_ZN6vectorIP9func_declLb0EjE3endEv.exit.i:        ; preds = %_ZNK15ref_vector_coreI9func_decl19ref_manager_wrapperIS0_11ast_managerEE4sizeEv.exit, %._crit_edge
  %14 = phi ptr [ %.pre, %._crit_edge ], [ %6, %_ZNK15ref_vector_coreI9func_decl19ref_manager_wrapperIS0_11ast_managerEE4sizeEv.exit ]
  %15 = getelementptr inbounds i8, ptr %14, i64 -4
  %16 = load i32, ptr %15, align 4, !tbaa !83
  %17 = zext i32 %16 to i64
  %18 = getelementptr inbounds nuw ptr, ptr %14, i64 %17
  %19 = icmp ugt i32 %16, %1
  br i1 %19, label %.lr.ph.i.i.preheader, label %_ZN15ref_vector_coreI9func_decl19ref_manager_wrapperIS0_11ast_managerEE13dec_range_refEPKPS0_S7_.exit.thread4.i

.lr.ph.i.i.preheader:                             ; preds = %_ZN6vectorIP9func_declLb0EjE3endEv.exit.i
  %20 = zext i32 %1 to i64
  %21 = getelementptr inbounds nuw ptr, ptr %14, i64 %20
  br label %.lr.ph.i.i

.lr.ph.i.i:                                       ; preds = %.lr.ph.i.i.preheader, %_ZN15ref_vector_coreI9func_decl19ref_manager_wrapperIS0_11ast_managerEE7dec_refEPS0_.exit.i.i
  %.06.i.i = phi ptr [ %30, %_ZN15ref_vector_coreI9func_decl19ref_manager_wrapperIS0_11ast_managerEE7dec_refEPS0_.exit.i.i ], [ %21, %.lr.ph.i.i.preheader ]
  %22 = load ptr, ptr %.06.i.i, align 8, !tbaa !84
  %23 = load ptr, ptr %4, align 8, !tbaa !85
  %.not.i.i.i.i.i = icmp eq ptr %22, null
  br i1 %.not.i.i.i.i.i, label %_ZN15ref_vector_coreI9func_decl19ref_manager_wrapperIS0_11ast_managerEE7dec_refEPS0_.exit.i.i, label %24

24:                                               ; preds = %.lr.ph.i.i
  %25 = getelementptr inbounds nuw i8, ptr %22, i64 8
  %26 = load i32, ptr %25, align 4, !tbaa !87
  %27 = add i32 %26, -1
  store i32 %27, ptr %25, align 4, !tbaa !87
  %28 = icmp eq i32 %27, 0
  br i1 %28, label %29, label %_ZN15ref_vector_coreI9func_decl19ref_manager_wrapperIS0_11ast_managerEE7dec_refEPS0_.exit.i.i

29:                                               ; preds = %24
  call void @_ZN11ast_manager11delete_nodeEP3ast(ptr noundef nonnull align 8 dereferenceable(976) %23, ptr noundef nonnull %22)
  br label %_ZN15ref_vector_coreI9func_decl19ref_manager_wrapperIS0_11ast_managerEE7dec_refEPS0_.exit.i.i

_ZN15ref_vector_coreI9func_decl19ref_manager_wrapperIS0_11ast_managerEE7dec_refEPS0_.exit.i.i: ; preds = %29, %24, %.lr.ph.i.i
  %30 = getelementptr inbounds nuw i8, ptr %.06.i.i, i64 8
  %31 = icmp ult ptr %30, %18
  br i1 %31, label %.lr.ph.i.i, label %_ZN15ref_vector_coreI9func_decl19ref_manager_wrapperIS0_11ast_managerEE13dec_range_refEPKPS0_S7_.exit.i, !llvm.loop !89

_ZN15ref_vector_coreI9func_decl19ref_manager_wrapperIS0_11ast_managerEE13dec_range_refEPKPS0_S7_.exit.i: ; preds = %_ZN15ref_vector_coreI9func_decl19ref_manager_wrapperIS0_11ast_managerEE7dec_refEPS0_.exit.i.i
  %.pre.i = load ptr, ptr %5, align 8, !tbaa !27
  %.not.i.i = icmp eq ptr %.pre.i, null
  br i1 %.not.i.i, label %_ZN15ref_vector_coreI9func_decl19ref_manager_wrapperIS0_11ast_managerEE6shrinkEj.exit, label %_ZN15ref_vector_coreI9func_decl19ref_manager_wrapperIS0_11ast_managerEE13dec_range_refEPKPS0_S7_.exit.thread4.i

_ZN15ref_vector_coreI9func_decl19ref_manager_wrapperIS0_11ast_managerEE13dec_range_refEPKPS0_S7_.exit.thread4.i: ; preds = %_ZN15ref_vector_coreI9func_decl19ref_manager_wrapperIS0_11ast_managerEE13dec_range_refEPKPS0_S7_.exit.i, %_ZN6vectorIP9func_declLb0EjE3endEv.exit.i
  %32 = phi ptr [ %.pre.i, %_ZN15ref_vector_coreI9func_decl19ref_manager_wrapperIS0_11ast_managerEE13dec_range_refEPKPS0_S7_.exit.i ], [ %14, %_ZN6vectorIP9func_declLb0EjE3endEv.exit.i ]
  %33 = getelementptr inbounds i8, ptr %32, i64 -4
  store i32 %1, ptr %33, align 4, !tbaa !83
  br label %_ZN15ref_vector_coreI9func_decl19ref_manager_wrapperIS0_11ast_managerEE6shrinkEj.exit

_ZN15ref_vector_coreI9func_decl19ref_manager_wrapperIS0_11ast_managerEE6shrinkEj.exit: ; preds = %2, %._crit_edge, %_ZN15ref_vector_coreI9func_decl19ref_manager_wrapperIS0_11ast_managerEE13dec_range_refEPKPS0_S7_.exit.i, %_ZN15ref_vector_coreI9func_decl19ref_manager_wrapperIS0_11ast_managerEE13dec_range_refEPKPS0_S7_.exit.thread4.i
  ret void

34:                                               ; preds = %.lr.ph, %34
  %indvars.iv = phi i64 [ %12, %.lr.ph ], [ %indvars.iv.next, %34 ]
  call void @llvm.lifetime.start.p0(i64 8, ptr nonnull %3) #19
  %35 = load ptr, ptr %5, align 8, !tbaa !27
  %36 = getelementptr inbounds nuw ptr, ptr %35, i64 %indvars.iv
  %37 = load ptr, ptr %36, align 8, !tbaa !84
  store ptr %37, ptr %3, align 8, !tbaa !84
  call void @_ZN14core_hashtableI14obj_hash_entryI9func_declE12obj_ptr_hashIS1_E6ptr_eqIS1_EE6removeERKPS1_(ptr noundef nonnull align 8 dereferenceable(20) %11, ptr noundef nonnull align 8 dereferenceable(8) %3)
  call void @llvm.lifetime.end.p0(i64 8, ptr nonnull %3) #19
  %indvars.iv.next = add nuw nsw i64 %indvars.iv, 1
  %lftr.wideiv = trunc i64 %indvars.iv.next to i32
  %exitcond.not = icmp eq i32 %9, %lftr.wideiv
  br i1 %exitcond.not, label %._crit_edge, label %34, !llvm.loop !113
}